; Function Attrs: nounwind uwtable
define internal fastcc void @Vec_PtrSetEntry(ptr noundef captures(none) %0, i32 noundef %1, ptr noundef %2) unnamed_addr #1 {
  %4 = add nsw i32 %1, 1
  %5 = getelementptr inbounds nuw i8, ptr %0, i64 4
  %6 = load i32, ptr %5, align 4
  %.not.i.not = icmp slt i32 %1, %6
  br i1 %.not.i.not, label %Vec_PtrFillExtra.exit, label %7

7:                                                ; preds = %3
  %8 = load i32, ptr %0, align 8
  %9 = shl nsw i32 %8, 1
  %.not = icmp slt i32 %1, %9
  %.not.i.i.not = icmp sgt i32 %8, %1
  br i1 %.not, label %22, label %10

10:                                               ; preds = %7
  br i1 %.not.i.i.not, label %Vec_PtrGrow.exit.i, label %11

11:                                               ; preds = %10
  %12 = getelementptr inbounds nuw i8, ptr %0, i64 8
  %13 = load ptr, ptr %12, align 8
  %.not9.i.i = icmp eq ptr %13, null
  %14 = sext i32 %4 to i64
  %15 = shl nsw i64 %14, 3
  br i1 %.not9.i.i, label %18, label %16

16:                                               ; preds = %11
  %17 = tail call ptr @realloc(ptr noundef nonnull %13, i64 noundef %15) #19
  br label %20

18:                                               ; preds = %11
  %19 = tail call noalias ptr @malloc(i64 noundef %15) #18
  br label %20

20:                                               ; preds = %18, %16
  %21 = phi ptr [ %17, %16 ], [ %19, %18 ]
  store ptr %21, ptr %12, align 8
  br label %Vec_PtrGrow.exit.sink.split.i

22:                                               ; preds = %7
  br i1 %.not.i.i.not, label %Vec_PtrGrow.exit.i, label %23

23:                                               ; preds = %22
  %24 = getelementptr inbounds nuw i8, ptr %0, i64 8
  %25 = load ptr, ptr %24, align 8
  %.not9.i21.i = icmp eq ptr %25, null
  %26 = sext i32 %9 to i64
  %27 = shl nsw i64 %26, 3
  br i1 %.not9.i21.i, label %30, label %28

28:                                               ; preds = %23
  %29 = tail call ptr @realloc(ptr noundef nonnull %25, i64 noundef %27) #19
  br label %32

30:                                               ; preds = %23
  %31 = tail call noalias ptr @malloc(i64 noundef %27) #18
  br label %32

32:                                               ; preds = %30, %28
  %33 = phi ptr [ %29, %28 ], [ %31, %30 ]
  store ptr %33, ptr %24, align 8
  br label %Vec_PtrGrow.exit.sink.split.i

Vec_PtrGrow.exit.sink.split.i:                    ; preds = %32, %20
  %.sink.i = phi i32 [ %9, %32 ], [ %4, %20 ]
  store i32 %.sink.i, ptr %0, align 8
  %.pre = load i32, ptr %5, align 4
  br label %Vec_PtrGrow.exit.i

Vec_PtrGrow.exit.i:                               ; preds = %Vec_PtrGrow.exit.sink.split.i, %22, %10
  %34 = phi i32 [ %.pre, %Vec_PtrGrow.exit.sink.split.i ], [ %6, %22 ], [ %6, %10 ]
  %.not4 = icmp sgt i32 %34, %1
  br i1 %.not4, label %._crit_edge.i, label %.lr.ph.i

.lr.ph.i:                                         ; preds = %Vec_PtrGrow.exit.i
  %35 = getelementptr inbounds nuw i8, ptr %0, i64 8
  %36 = sext i32 %34 to i64
  %wide.trip.count.i = sext i32 %4 to i64
  br label %37

37:                                               ; preds = %37, %.lr.ph.i
  %indvars.iv.i = phi i64 [ %36, %.lr.ph.i ], [ %indvars.iv.next.i, %37 ]
  %38 = load ptr, ptr %35, align 8
  %39 = getelementptr inbounds ptr, ptr %38, i64 %indvars.iv.i
  store ptr null, ptr %39, align 8
  %indvars.iv.next.i = add nsw i64 %indvars.iv.i, 1
  %exitcond.not.i = icmp eq i64 %indvars.iv.next.i, %wide.trip.count.i
  br i1 %exitcond.not.i, label %._crit_edge.i, label %37, !llvm.loop !9

._crit_edge.i:                                    ; preds = %37, %Vec_PtrGrow.exit.i
  store i32 %4, ptr %5, align 4
  br label %Vec_PtrFillExtra.exit

Vec_PtrFillExtra.exit:                            ; preds = %3, %._crit_edge.i
  %40 = getelementptr i8, ptr %0, i64 8
  %.val = load ptr, ptr %40, align 8
  %41 = sext i32 %1 to i64
  %42 = getelementptr inbounds ptr, ptr %.val, i64 %41
  store ptr %2, ptr %42, align 8
  ret void
}